; Function Attrs: null_pointer_is_valid sspstrong uwtable
define internal fastcc void @decode_on_off_level(ptr noundef %0, ptr noundef %1, ptr noundef readonly captures(none) %2, i32 noundef range(i32 -1, 65535) %3, i32 noundef %4) unnamed_addr #0 {
  %6 = tail call zeroext i8 @tvb_get_uint8(ptr noundef %1, i32 noundef 3)
  %.not = icmp eq i8 %6, 0
  %7 = select i1 %.not, ptr @.str.992, ptr @.str.1169
  %8 = getelementptr inbounds nuw i8, ptr %2, i64 8
  %9 = load ptr, ptr %8, align 8
  tail call void (ptr, i32, ptr, ...) @col_append_fstr(ptr noundef %9, i32 noundef 25, ptr noundef nonnull @.str.1223, ptr noundef nonnull %7)
  %10 = tail call ptr @proto_tree_add_item(ptr noundef %0, i32 noundef %4, ptr noundef %1, i32 noundef 3, i32 noundef 1, i32 noundef 0)
  %11 = icmp ugt i32 %3, 1
  %12 = icmp eq i8 %6, 1
  %or.cond = and i1 %11, %12
  br i1 %or.cond, label %13, label %16

13:                                               ; preds = %5
  %14 = load i32, ptr @hf_ua3g_on_off_level_level_on_loudspeaker, align 4
  %15 = tail call ptr @proto_tree_add_item(ptr noundef %0, i32 noundef %14, ptr noundef %1, i32 noundef 4, i32 noundef 1, i32 noundef 0)
  br label %16

16:                                               ; preds = %13, %5
  ret void
}